target datalayout = "e-m:e-p270:32:32-p271:32:32-p272:64:64-i64:64-i128:128-f80:128-n8:16:32:64-S128"
target triple = "x86_64-pc-linux-gnu"

%struct.H5S_select_class_t = type { i32, ptr, ptr, ptr, ptr, ptr, ptr, ptr, ptr, ptr, ptr, ptr, ptr, ptr, ptr, ptr, ptr, ptr, ptr, ptr, ptr }
%struct.H5S_t = type { %struct.H5S_extent_t, %struct.H5S_select_t }
%struct.H5S_extent_t = type { %struct.H5O_shared_t, i32, i32, i64, i32, ptr, ptr }
%struct.H5O_shared_t = type { i32, ptr, i32, %union.anon }
%union.anon = type { %struct.H5O_mesg_loc_t }
%struct.H5O_mesg_loc_t = type { i32, i64 }
%struct.H5S_select_t = type { ptr, i8, [32 x i64], i64, %union.anon.0 }
%union.anon.0 = type { ptr }

@.str.1 = private unnamed_addr constant [103 x i8] c"generated/home/dtcxzyw/WorkSpace/Projects/compilers/llvm-opt-benchmark/bench/hdf5/hdf5/src/H5Sselect.c\00", align 1
@H5E_DATASPACE_g = external global i64, align 8
@H5E_UNSUPPORTED_g = external global i64, align 8
@H5E_CANTDELETE_g = external global i64, align 8
@.str.60 = private unnamed_addr constant [23 x i8] c"can't change selection\00", align 1
@H5E_CANTSELECT_g = external global i64, align 8
@H5E_CANTCLIP_g = external global i64, align 8
@__func__.H5S_select_subtract = private unnamed_addr constant [20 x i8] c"H5S_select_subtract\00", align 1
@.str.82 = private unnamed_addr constant [41 x i8] c"point selections not currently supported\00", align 1
@.str.83 = private unnamed_addr constant [24 x i8] c"can't convert selection\00", align 1
@.str.84 = private unnamed_addr constant [25 x i8] c"can't subtract hyperslab\00", align 1

; Function Attrs: nounwind uwtable
define i32 @H5S_select_subtract(ptr noundef %0, ptr noundef %1) #0 {
  %3 = alloca ptr, align 8
  %4 = alloca ptr, align 8
  %5 = alloca i32, align 4
  %6 = alloca i8, align 1
  %7 = alloca [32 x i64], align 16
  %8 = alloca [32 x i64], align 16
  %9 = alloca [32 x i64], align 16
  %10 = alloca [32 x i64], align 16
  %11 = alloca i32, align 4
  store ptr %0, ptr %3, align 8
  store ptr %1, ptr %4, align 8
  store i32 0, ptr %5, align 4
  store i8 0, ptr %6, align 1
  %12 = load ptr, ptr %3, align 8
  %13 = getelementptr inbounds %struct.H5S_t, ptr %12, i32 0, i32 1
  %14 = getelementptr inbounds %struct.H5S_select_t, ptr %13, i32 0, i32 0
  %15 = load ptr, ptr %14, align 8
  %16 = getelementptr inbounds %struct.H5S_select_class_t, ptr %15, i32 0, i32 0
  %17 = load i32, ptr %16, align 8
  %18 = icmp ne i32 %17, 0
  br i1 %18, label %19, label %173

19:                                               ; preds = %2
  %20 = load ptr, ptr %4, align 8
  %21 = getelementptr inbounds %struct.H5S_t, ptr %20, i32 0, i32 1
  %22 = getelementptr inbounds %struct.H5S_select_t, ptr %21, i32 0, i32 0
  %23 = load ptr, ptr %22, align 8
  %24 = getelementptr inbounds %struct.H5S_select_class_t, ptr %23, i32 0, i32 0
  %25 = load i32, ptr %24, align 8
  %26 = icmp ne i32 %25, 0
  br i1 %26, label %27, label %173

27:                                               ; preds = %19
  %28 = load ptr, ptr %4, align 8
  %29 = getelementptr inbounds %struct.H5S_t, ptr %28, i32 0, i32 1
  %30 = getelementptr inbounds %struct.H5S_select_t, ptr %29, i32 0, i32 0
  %31 = load ptr, ptr %30, align 8
  %32 = getelementptr inbounds %struct.H5S_select_class_t, ptr %31, i32 0, i32 0
  %33 = load i32, ptr %32, align 8
  %34 = icmp eq i32 %33, 3
  br i1 %34, label %35, label %55

35:                                               ; preds = %27
  %36 = load ptr, ptr %3, align 8
  %37 = call i32 @H5S_select_none(ptr noundef %36)
  %38 = icmp slt i32 %37, 0
  br i1 %38, label %39, label %54

39:                                               ; preds = %35
  br label %40

40:                                               ; preds = %39
  br label %41

41:                                               ; preds = %40
  br label %42

42:                                               ; preds = %41
  %43 = load i64, ptr @H5E_DATASPACE_g, align 8
  %44 = load i64, ptr @H5E_CANTDELETE_g, align 8
  %45 = call i32 (ptr, ptr, i32, i64, i64, ptr, ...) @H5E_printf_stack(ptr noundef @.str.1, ptr noundef @__func__.H5S_select_subtract, i32 noundef 2738, i64 noundef %43, i64 noundef %44, ptr noundef @.str.60)
  br label %46

46:                                               ; preds = %42
  store i8 1, ptr %6, align 1
  %47 = load i8, ptr %6, align 1
  %48 = trunc i8 %47 to i1
  %49 = zext i1 %48 to i8
  store i8 %49, ptr %6, align 1
  br label %50

50:                                               ; preds = %46
  br label %51

51:                                               ; preds = %50
  store i32 -1, ptr %5, align 4
  br label %174

52:                                               ; No predecessors!
  br label %53

53:                                               ; preds = %52
  br label %54

54:                                               ; preds = %53, %35
  br label %172

55:                                               ; preds = %27
  %56 = load ptr, ptr %4, align 8
  %57 = getelementptr inbounds %struct.H5S_t, ptr %56, i32 0, i32 1
  %58 = getelementptr inbounds %struct.H5S_select_t, ptr %57, i32 0, i32 0
  %59 = load ptr, ptr %58, align 8
  %60 = getelementptr inbounds %struct.H5S_select_class_t, ptr %59, i32 0, i32 0
  %61 = load i32, ptr %60, align 8
  %62 = icmp eq i32 %61, 1
  br i1 %62, label %71, label %63

63:                                               ; preds = %55
  %64 = load ptr, ptr %3, align 8
  %65 = getelementptr inbounds %struct.H5S_t, ptr %64, i32 0, i32 1
  %66 = getelementptr inbounds %struct.H5S_select_t, ptr %65, i32 0, i32 0
  %67 = load ptr, ptr %66, align 8
  %68 = getelementptr inbounds %struct.H5S_select_class_t, ptr %67, i32 0, i32 0
  %69 = load i32, ptr %68, align 8
  %70 = icmp eq i32 %69, 1
  br i1 %70, label %71, label %86

71:                                               ; preds = %63, %55
  br label %72

72:                                               ; preds = %71
  br label %73

73:                                               ; preds = %72
  br label %74

74:                                               ; preds = %73
  %75 = load i64, ptr @H5E_DATASPACE_g, align 8
  %76 = load i64, ptr @H5E_UNSUPPORTED_g, align 8
  %77 = call i32 (ptr, ptr, i32, i64, i64, ptr, ...) @H5E_printf_stack(ptr noundef @.str.1, ptr noundef @__func__.H5S_select_subtract, i32 noundef 2743, i64 noundef %75, i64 noundef %76, ptr noundef @.str.82)
  br label %78

78:                                               ; preds = %74
  store i8 1, ptr %6, align 1
  %79 = load i8, ptr %6, align 1
  %80 = trunc i8 %79 to i1
  %81 = zext i1 %80 to i8
  store i8 %81, ptr %6, align 1
  br label %82

82:                                               ; preds = %78
  br label %83

83:                                               ; preds = %82
  store i32 -1, ptr %5, align 4
  br label %174

84:                                               ; No predecessors!
  br label %85

85:                                               ; preds = %84
  br label %171

86:                                               ; preds = %63
  %87 = load ptr, ptr %3, align 8
  %88 = getelementptr inbounds %struct.H5S_t, ptr %87, i32 0, i32 1
  %89 = getelementptr inbounds %struct.H5S_select_t, ptr %88, i32 0, i32 0
  %90 = load ptr, ptr %89, align 8
  %91 = getelementptr inbounds %struct.H5S_select_class_t, ptr %90, i32 0, i32 0
  %92 = load i32, ptr %91, align 8
  %93 = icmp eq i32 %92, 3
  br i1 %93, label %94, label %150

94:                                               ; preds = %86
  store i32 0, ptr %11, align 4
  br label %95

95:                                               ; preds = %123, %94
  %96 = load i32, ptr %11, align 4
  %97 = load ptr, ptr %3, align 8
  %98 = getelementptr inbounds %struct.H5S_t, ptr %97, i32 0, i32 0
  %99 = getelementptr inbounds %struct.H5S_extent_t, ptr %98, i32 0, i32 4
  %100 = load i32, ptr %99, align 8
  %101 = icmp ult i32 %96, %100
  br i1 %101, label %102, label %126

102:                                              ; preds = %95
  %103 = load i32, ptr %11, align 4
  %104 = zext i32 %103 to i64
  %105 = getelementptr inbounds [32 x i64], ptr %7, i64 0, i64 %104
  store i64 0, ptr %105, align 8
  %106 = load i32, ptr %11, align 4
  %107 = zext i32 %106 to i64
  %108 = getelementptr inbounds [32 x i64], ptr %8, i64 0, i64 %107
  store i64 1, ptr %108, align 8
  %109 = load i32, ptr %11, align 4
  %110 = zext i32 %109 to i64
  %111 = getelementptr inbounds [32 x i64], ptr %9, i64 0, i64 %110
  store i64 1, ptr %111, align 8
  %112 = load ptr, ptr %3, align 8
  %113 = getelementptr inbounds %struct.H5S_t, ptr %112, i32 0, i32 0
  %114 = getelementptr inbounds %struct.H5S_extent_t, ptr %113, i32 0, i32 5
  %115 = load ptr, ptr %114, align 8
  %116 = load i32, ptr %11, align 4
  %117 = zext i32 %116 to i64
  %118 = getelementptr inbounds i64, ptr %115, i64 %117
  %119 = load i64, ptr %118, align 8
  %120 = load i32, ptr %11, align 4
  %121 = zext i32 %120 to i64
  %122 = getelementptr inbounds [32 x i64], ptr %10, i64 0, i64 %121
  store i64 %119, ptr %122, align 8
  br label %123

123:                                              ; preds = %102
  %124 = load i32, ptr %11, align 4
  %125 = add i32 %124, 1
  store i32 %125, ptr %11, align 4
  br label %95

126:                                              ; preds = %95
  %127 = load ptr, ptr %3, align 8
  %128 = getelementptr inbounds [32 x i64], ptr %7, i64 0, i64 0
  %129 = getelementptr inbounds [32 x i64], ptr %8, i64 0, i64 0
  %130 = getelementptr inbounds [32 x i64], ptr %9, i64 0, i64 0
  %131 = getelementptr inbounds [32 x i64], ptr %10, i64 0, i64 0
  %132 = call i32 @H5S_select_hyperslab(ptr noundef %127, i32 noundef 0, ptr noundef %128, ptr noundef %129, ptr noundef %130, ptr noundef %131)
  %133 = icmp slt i32 %132, 0
  br i1 %133, label %134, label %149

134:                                              ; preds = %126
  br label %135

135:                                              ; preds = %134
  br label %136

136:                                              ; preds = %135
  br label %137

137:                                              ; preds = %136
  %138 = load i64, ptr @H5E_DATASPACE_g, align 8
  %139 = load i64, ptr @H5E_CANTSELECT_g, align 8
  %140 = call i32 (ptr, ptr, i32, i64, i64, ptr, ...) @H5E_printf_stack(ptr noundef @.str.1, ptr noundef @__func__.H5S_select_subtract, i32 noundef 2767, i64 noundef %138, i64 noundef %139, ptr noundef @.str.83)
  br label %141

141:                                              ; preds = %137
  store i8 1, ptr %6, align 1
  %142 = load i8, ptr %6, align 1
  %143 = trunc i8 %142 to i1
  %144 = zext i1 %143 to i8
  store i8 %144, ptr %6, align 1
  br label %145

145:                                              ; preds = %141
  br label %146

146:                                              ; preds = %145
  store i32 -1, ptr %5, align 4
  br label %174

147:                                              ; No predecessors!
  br label %148

148:                                              ; preds = %147
  br label %149

149:                                              ; preds = %148, %126
  br label %150

150:                                              ; preds = %149, %86
  %151 = load ptr, ptr %3, align 8
  %152 = load ptr, ptr %4, align 8
  %153 = call i32 @H5S__modify_select(ptr noundef %151, i32 noundef 4, ptr noundef %152)
  %154 = icmp slt i32 %153, 0
  br i1 %154, label %155, label %170

155:                                              ; preds = %150
  br label %156

156:                                              ; preds = %155
  br label %157

157:                                              ; preds = %156
  br label %158

158:                                              ; preds = %157
  %159 = load i64, ptr @H5E_DATASPACE_g, align 8
  %160 = load i64, ptr @H5E_CANTCLIP_g, align 8
  %161 = call i32 (ptr, ptr, i32, i64, i64, ptr, ...) @H5E_printf_stack(ptr noundef @.str.1, ptr noundef @__func__.H5S_select_subtract, i32 noundef 2775, i64 noundef %159, i64 noundef %160, ptr noundef @.str.84)
  br label %162

162:                                              ; preds = %158
  store i8 1, ptr %6, align 1
  %163 = load i8, ptr %6, align 1
  %164 = trunc i8 %163 to i1
  %165 = zext i1 %164 to i8
  store i8 %165, ptr %6, align 1
  br label %166

166:                                              ; preds = %162
  br label %167

167:                                              ; preds = %166
  store i32 -1, ptr %5, align 4
  br label %174

168:                                              ; No predecessors!
  br label %169

169:                                              ; preds = %168
  br label %170

170:                                              ; preds = %169, %150
  br label %171

171:                                              ; preds = %170, %85
  br label %172

172:                                              ; preds = %171, %54
  br label %173

173:                                              ; preds = %172, %19, %2
  br label %174

174:                                              ; preds = %173, %167, %146, %83, %51
  %175 = load i32, ptr %5, align 4
  ret i32 %175
}