; Function Attrs: nounwind uwtable
define range(i32 -1, 1) i32 @H5S_select_subtract(ptr noundef %0, ptr noundef %1) local_unnamed_addr #3 {
  %3 = alloca [32 x i64], align 16
  %4 = alloca [32 x i64], align 16
  %5 = alloca [32 x i64], align 16
  %6 = alloca [32 x i64], align 16
  %7 = getelementptr inbounds i8, ptr %0, i64 80
  %8 = load ptr, ptr %7, align 8
  %9 = load i32, ptr %8, align 8
  %.not = icmp eq i32 %9, 0
  br i1 %.not, label %50, label %10

10:                                               ; preds = %2
  %11 = getelementptr inbounds i8, ptr %1, i64 80
  %12 = load ptr, ptr %11, align 8
  %13 = load i32, ptr %12, align 8
  switch i32 %13, label %21 [
    i32 0, label %50
    i32 3, label %14
    i32 1, label %26
  ]

14:                                               ; preds = %10
  %15 = tail call i32 @H5S_select_none(ptr noundef nonnull %0) #7
  %16 = icmp slt i32 %15, 0
  br i1 %16, label %17, label %50

17:                                               ; preds = %14
  %18 = load i64, ptr @H5E_DATASPACE_g, align 8
  %19 = load i64, ptr @H5E_CANTDELETE_g, align 8
  %20 = tail call i32 (ptr, ptr, i32, i64, i64, ptr, ...) @H5E_printf_stack(ptr noundef nonnull @.str.1, ptr noundef nonnull @__func__.H5S_select_subtract, i32 noundef 2738, i64 noundef %18, i64 noundef %19, ptr noundef nonnull @.str.60) #7
  br label %50

21:                                               ; preds = %10
  switch i32 %9, label %43 [
    i32 1, label %26
    i32 3, label %.preheader
  ]

.preheader:                                       ; preds = %21
  %22 = getelementptr inbounds i8, ptr %0, i64 56
  %23 = load i32, ptr %22, align 8
  %.not28 = icmp eq i32 %23, 0
  br i1 %.not28, label %._crit_edge, label %.lr.ph

.lr.ph:                                           ; preds = %.preheader
  %24 = getelementptr inbounds i8, ptr %0, i64 64
  %25 = load ptr, ptr %24, align 8
  %wide.trip.count = zext i32 %23 to i64
  br label %30

26:                                               ; preds = %21, %10
  %27 = load i64, ptr @H5E_DATASPACE_g, align 8
  %28 = load i64, ptr @H5E_UNSUPPORTED_g, align 8
  %29 = tail call i32 (ptr, ptr, i32, i64, i64, ptr, ...) @H5E_printf_stack(ptr noundef nonnull @.str.1, ptr noundef nonnull @__func__.H5S_select_subtract, i32 noundef 2743, i64 noundef %27, i64 noundef %28, ptr noundef nonnull @.str.82) #7
  br label %50

30:                                               ; preds = %.lr.ph, %30
  %indvars.iv = phi i64 [ 0, %.lr.ph ], [ %indvars.iv.next, %30 ]
  %31 = getelementptr inbounds [32 x i64], ptr %3, i64 0, i64 %indvars.iv
  store i64 0, ptr %31, align 8
  %32 = getelementptr inbounds [32 x i64], ptr %4, i64 0, i64 %indvars.iv
  store i64 1, ptr %32, align 8
  %33 = getelementptr inbounds [32 x i64], ptr %5, i64 0, i64 %indvars.iv
  store i64 1, ptr %33, align 8
  %34 = getelementptr inbounds i64, ptr %25, i64 %indvars.iv
  %35 = load i64, ptr %34, align 8
  %36 = getelementptr inbounds [32 x i64], ptr %6, i64 0, i64 %indvars.iv
  store i64 %35, ptr %36, align 8
  %indvars.iv.next = add nuw nsw i64 %indvars.iv, 1
  %exitcond.not = icmp eq i64 %indvars.iv.next, %wide.trip.count
  br i1 %exitcond.not, label %._crit_edge, label %30

._crit_edge:                                      ; preds = %30, %.preheader
  %37 = call i32 @H5S_select_hyperslab(ptr noundef nonnull %0, i32 noundef 0, ptr noundef nonnull %3, ptr noundef nonnull %4, ptr noundef nonnull %5, ptr noundef nonnull %6) #7
  %38 = icmp slt i32 %37, 0
  br i1 %38, label %39, label %43

39:                                               ; preds = %._crit_edge
  %40 = load i64, ptr @H5E_DATASPACE_g, align 8
  %41 = load i64, ptr @H5E_CANTSELECT_g, align 8
  %42 = call i32 (ptr, ptr, i32, i64, i64, ptr, ...) @H5E_printf_stack(ptr noundef nonnull @.str.1, ptr noundef nonnull @__func__.H5S_select_subtract, i32 noundef 2767, i64 noundef %40, i64 noundef %41, ptr noundef nonnull @.str.83) #7
  br label %50

43:                                               ; preds = %21, %._crit_edge
  %44 = call i32 @H5S__modify_select(ptr noundef nonnull %0, i32 noundef 4, ptr noundef %1) #7
  %45 = icmp slt i32 %44, 0
  br i1 %45, label %46, label %50

46:                                               ; preds = %43
  %47 = load i64, ptr @H5E_DATASPACE_g, align 8
  %48 = load i64, ptr @H5E_CANTCLIP_g, align 8
  %49 = call i32 (ptr, ptr, i32, i64, i64, ptr, ...) @H5E_printf_stack(ptr noundef nonnull @.str.1, ptr noundef nonnull @__func__.H5S_select_subtract, i32 noundef 2775, i64 noundef %47, i64 noundef %48, ptr noundef nonnull @.str.84) #7
  br label %50

50:                                               ; preds = %10, %2, %43, %14, %46, %39, %26, %17
  %.023 = phi i32 [ -1, %17 ], [ 0, %14 ], [ -1, %26 ], [ -1, %39 ], [ -1, %46 ], [ 0, %43 ], [ %13, %10 ], [ 0, %2 ]
  ret i32 %.023
}